target datalayout = "e-m:e-p270:32:32-p271:32:32-p272:64:64-i64:64-i128:128-f80:128-n8:16:32:64-S128"
target triple = "x86_64-unknown-linux-gnu"

%struct.SCSISense = type { i8, i8, i8 }
%struct.VirtIOSCSICommon = type { %struct.VirtIODevice, %struct.VirtIOSCSIConf, i32, i32, ptr, ptr, ptr }
%struct.VirtIODevice = type { %struct.DeviceState, ptr, i8, i8, i16, i64, i64, i64, i64, ptr, i16, i32, i32, ptr, %struct.MemoryListener, i16, i8, i8, i8, i8, i8, i8, i8, i8, i8, ptr, ptr, i8, i8, ptr, ptr, %union.anon.1, %struct.EventNotifier, i8 }
%struct.DeviceState = type { %struct.Object, ptr, ptr, i8, i8, i64, ptr, i32, i8, ptr, %struct.NamedGPIOListHead, %struct.NamedClockListHead, %struct.BusStateHead, i32, i32, i32, %struct.ResettableState, ptr, %struct.MemReentrancyGuard }
%struct.Object = type { ptr, ptr, ptr, i32, ptr }
%struct.NamedGPIOListHead = type { ptr }
%struct.NamedClockListHead = type { ptr }
%struct.BusStateHead = type { ptr }
%struct.ResettableState = type { i32, i8, i8 }
%struct.MemReentrancyGuard = type { i8 }
%struct.MemoryListener = type { ptr, ptr, ptr, ptr, ptr, ptr, ptr, ptr, ptr, ptr, ptr, ptr, ptr, ptr, ptr, ptr, ptr, i32, ptr, ptr, %union.anon, %union.anon.0 }
%union.anon = type { %struct.QTailQLink }
%struct.QTailQLink = type { ptr, ptr }
%union.anon.0 = type { %struct.QTailQLink }
%union.anon.1 = type { %struct.QTailQLink }
%struct.EventNotifier = type { i32, i32, i8 }
%struct.VirtIOSCSIConf = type { i32, i32, i8, i32, i32, ptr, ptr, %struct.CharBackend, i32, ptr }
%struct.CharBackend = type { ptr, ptr, ptr, ptr, ptr, ptr, i32, i32 }
%struct.VirtIOSCSI = type { %struct.VirtIOSCSICommon, %struct.SCSIBus, i32, i8, ptr, %union.anon.3, ptr, i8, i8, i8, i8, i32 }
%struct.SCSIBus = type { %struct.BusState, i32, %struct.SCSISense, ptr, i32 }
%struct.BusState = type { %struct.Object, ptr, ptr, ptr, i32, i8, i8, i32, %union.BusChildHead, %struct.BusStateEntry, %struct.ResettableState }
%union.BusChildHead = type { %struct.QTailQLink }
%struct.BusStateEntry = type { ptr, ptr }
%union.anon.3 = type { %struct.QTailQLink }
%struct.SCSIDevice = type { %struct.DeviceState, ptr, ptr, i32, %struct.BlockConf, %struct.SCSISense, i8, [252 x i8], i32, %union.anon.9, i32, i32, i32, i32, i64, i64, i64, i32, i32, i32, i8, i8 }
%struct.BlockConf = type { ptr, i32, i32, i32, i32, i32, i32, i32, i32, i32, i32, i32, i32, i32, i32, i8, i32, i32, i32, i32 }
%union.anon.9 = type { %struct.QTailQLink }
%struct.VirtIOSCSIEventInfo = type { i32, i32, %union.anon.16 }
%union.anon.16 = type { %struct.anon.17 }
%struct.anon.17 = type { i32, i32 }

@.str.3 = private unnamed_addr constant [14 x i8] c"virtio-device\00", align 1
@.str.4 = private unnamed_addr constant [105 x i8] c"/home/dtcxzyw/WorkSpace/Projects/compilers/llvm-opt-benchmark/bench/qemu/qemu/include/hw/virtio/virtio.h\00", align 1
@__func__.VIRTIO_DEVICE = private unnamed_addr constant [14 x i8] c"VIRTIO_DEVICE\00", align 1
@.str.25 = private unnamed_addr constant [10 x i8] c"fbit < 64\00", align 1
@__PRETTY_FUNCTION__.virtio_has_feature = private unnamed_addr constant [49 x i8] c"_Bool virtio_has_feature(uint64_t, unsigned int)\00", align 1

; Function Attrs: nounwind sspstrong uwtable
define internal zeroext i1 @virtio_has_feature(i64 noundef %features, i32 noundef %fbit) #0 {
entry:
  %features.addr = alloca i64, align 8
  %fbit.addr = alloca i32, align 4
  store i64 %features, ptr %features.addr, align 8
  store i32 %fbit, ptr %fbit.addr, align 4
  %0 = load i32, ptr %fbit.addr, align 4
  %cmp = icmp ult i32 %0, 64
  br i1 %cmp, label %if.then, label %if.else

if.then:                                          ; preds = %entry
  br label %if.end

if.else:                                          ; preds = %entry
  call void @__assert_fail(ptr noundef @.str.25, ptr noundef @.str.4, i32 noundef 422, ptr noundef @__PRETTY_FUNCTION__.virtio_has_feature) #11
  unreachable

if.end:                                           ; preds = %if.then
  %1 = load i64, ptr %features.addr, align 8
  %2 = load i32, ptr %fbit.addr, align 4
  %sh_prom = zext i32 %2 to i64
  %shl = shl i64 1, %sh_prom
  %and = and i64 %1, %shl
  %tobool = icmp ne i64 %and, 0
  %lnot = xor i1 %tobool, true
  %lnot1 = xor i1 %lnot, true
  ret i1 %lnot1
}

; Function Attrs: nounwind sspstrong uwtable
define internal void @virtio_scsi_release(ptr noundef %s) #0 {
entry:
  %s.addr = alloca ptr, align 8
  store ptr %s, ptr %s.addr, align 8
  %0 = load ptr, ptr %s.addr, align 8
  %ctx = getelementptr inbounds %struct.VirtIOSCSI, ptr %0, i32 0, i32 6
  %1 = load ptr, ptr %ctx, align 8
  %tobool = icmp ne ptr %1, null
  br i1 %tobool, label %if.then, label %if.end

if.then:                                          ; preds = %entry
  %2 = load ptr, ptr %s.addr, align 8
  %ctx1 = getelementptr inbounds %struct.VirtIOSCSI, ptr %2, i32 0, i32 6
  %3 = load ptr, ptr %ctx1, align 8
  call void @aio_context_release(ptr noundef %3)
  br label %if.end

if.end:                                           ; preds = %if.then, %entry
  ret void
}

; Function Attrs: nounwind sspstrong uwtable
define internal void @virtio_scsi_acquire(ptr noundef %s) #0 {
entry:
  %s.addr = alloca ptr, align 8
  store ptr %s, ptr %s.addr, align 8
  %0 = load ptr, ptr %s.addr, align 8
  %ctx = getelementptr inbounds %struct.VirtIOSCSI, ptr %0, i32 0, i32 6
  %1 = load ptr, ptr %ctx, align 8
  %tobool = icmp ne ptr %1, null
  br i1 %tobool, label %if.then, label %if.end

if.then:                                          ; preds = %entry
  %2 = load ptr, ptr %s.addr, align 8
  %ctx1 = getelementptr inbounds %struct.VirtIOSCSI, ptr %2, i32 0, i32 6
  %3 = load ptr, ptr %ctx1, align 8
  call void @aio_context_acquire(ptr noundef %3)
  br label %if.end

if.end:                                           ; preds = %if.then, %entry
  ret void
}

; Function Attrs: nounwind sspstrong uwtable
define internal zeroext i1 @virtio_vdev_has_feature(ptr noundef %vdev, i32 noundef %fbit) #0 {
entry:
  %vdev.addr = alloca ptr, align 8
  %fbit.addr = alloca i32, align 4
  store ptr %vdev, ptr %vdev.addr, align 8
  store i32 %fbit, ptr %fbit.addr, align 4
  %0 = load ptr, ptr %vdev.addr, align 8
  %guest_features = getelementptr inbounds %struct.VirtIODevice, ptr %0, i32 0, i32 6
  %1 = load i64, ptr %guest_features, align 8
  %2 = load i32, ptr %fbit.addr, align 4
  %call = call zeroext i1 @virtio_has_feature(i64 noundef %1, i32 noundef %2)
  ret i1 %call
}

; Function Attrs: nounwind sspstrong uwtable
define internal ptr @VIRTIO_DEVICE(ptr noundef %obj) #0 {
entry:
  %obj.addr = alloca ptr, align 8
  store ptr %obj, ptr %obj.addr, align 8
  %0 = load ptr, ptr %obj.addr, align 8
  %call = call ptr @object_dynamic_cast_assert(ptr noundef %0, ptr noundef @.str.3, ptr noundef @.str.4, i32 noundef 85, ptr noundef @__func__.VIRTIO_DEVICE)
  ret ptr %call
}

; Function Attrs: nounwind sspstrong uwtable
define internal void @virtio_scsi_change(ptr noundef %bus, ptr noundef %dev, i24 %sense.coerce) #0 {
entry:
  %sense = alloca %struct.SCSISense, align 1
  %tmp.coerce = alloca i24, align 4
  %bus.addr = alloca ptr, align 8
  %dev.addr = alloca ptr, align 8
  %s = alloca ptr, align 8
  %__mptr = alloca ptr, align 8
  %tmp = alloca ptr, align 8
  %vdev = alloca ptr, align 8
  %info = alloca %struct.VirtIOSCSIEventInfo, align 4
  store i24 %sense.coerce, ptr %tmp.coerce, align 4
  call void @llvm.memcpy.p0.p0.i64(ptr align 1 %sense, ptr align 4 %tmp.coerce, i64 3, i1 false)
  store ptr %bus, ptr %bus.addr, align 8
  store ptr %dev, ptr %dev.addr, align 8
  %0 = load ptr, ptr %bus.addr, align 8
  store ptr %0, ptr %__mptr, align 8
  %1 = load ptr, ptr %__mptr, align 8
  %add.ptr = getelementptr i8, ptr %1, i64 -664
  store ptr %add.ptr, ptr %tmp, align 8
  %2 = load ptr, ptr %tmp, align 8
  store ptr %2, ptr %s, align 8
  %3 = load ptr, ptr %s, align 8
  %call = call ptr @VIRTIO_DEVICE(ptr noundef %3)
  store ptr %call, ptr %vdev, align 8
  %4 = load ptr, ptr %vdev, align 8
  %call1 = call zeroext i1 @virtio_vdev_has_feature(ptr noundef %4, i32 noundef 2)
  br i1 %call1, label %land.lhs.true, label %if.end

land.lhs.true:                                    ; preds = %entry
  %5 = load ptr, ptr %dev.addr, align 8
  %type = getelementptr inbounds %struct.SCSIDevice, ptr %5, i32 0, i32 13
  %6 = load i32, ptr %type, align 4
  %cmp = icmp ne i32 %6, 5
  br i1 %cmp, label %if.then, label %if.end

if.then:                                          ; preds = %land.lhs.true
  %event = getelementptr inbounds %struct.VirtIOSCSIEventInfo, ptr %info, i32 0, i32 0
  store i32 3, ptr %event, align 4
  %reason = getelementptr inbounds %struct.VirtIOSCSIEventInfo, ptr %info, i32 0, i32 1
  %asc = getelementptr inbounds %struct.SCSISense, ptr %sense, i32 0, i32 1
  %7 = load i8, ptr %asc, align 1
  %conv = zext i8 %7 to i32
  %ascq = getelementptr inbounds %struct.SCSISense, ptr %sense, i32 0, i32 2
  %8 = load i8, ptr %ascq, align 1
  %conv2 = zext i8 %8 to i32
  %shl = shl i32 %conv2, 8
  %or = or i32 %conv, %shl
  store i32 %or, ptr %reason, align 4
  %9 = getelementptr inbounds %struct.VirtIOSCSIEventInfo, ptr %info, i32 0, i32 2
  %id = getelementptr inbounds %struct.anon.17, ptr %9, i32 0, i32 0
  %10 = load ptr, ptr %dev.addr, align 8
  %id3 = getelementptr inbounds %struct.SCSIDevice, ptr %10, i32 0, i32 3
  %11 = load i32, ptr %id3, align 8
  store i32 %11, ptr %id, align 4
  %lun = getelementptr inbounds %struct.anon.17, ptr %9, i32 0, i32 1
  %12 = load ptr, ptr %dev.addr, align 8
  %lun4 = getelementptr inbounds %struct.SCSIDevice, ptr %12, i32 0, i32 11
  %13 = load i32, ptr %lun4, align 4
  store i32 %13, ptr %lun, align 4
  %14 = load ptr, ptr %s, align 8
  call void @virtio_scsi_acquire(ptr noundef %14)
  %15 = load ptr, ptr %s, align 8
  call void @virtio_scsi_push_event(ptr noundef %15, ptr noundef %info)
  %16 = load ptr, ptr %s, align 8
  call void @virtio_scsi_release(ptr noundef %16)
  br label %if.end

if.end:                                           ; preds = %if.then, %land.lhs.true, %entry
  ret void
}