; Function Attrs: nounwind sspstrong uwtable
define internal void @virtio_scsi_change(ptr noundef %bus, ptr noundef readonly captures(none) %dev, i24 %sense.coerce) #0 {
entry:
  %info = alloca %struct.VirtIOSCSIEventInfo, align 4
  %sense.sroa.1.0.extract.shift = lshr i24 %sense.coerce, 8
  %add.ptr = getelementptr i8, ptr %bus, i64 -664
  %call.i = tail call ptr @object_dynamic_cast_assert(ptr noundef %add.ptr, ptr noundef nonnull @.str.3, ptr noundef nonnull @.str.4, i32 noundef 85, ptr noundef nonnull @__func__.VIRTIO_DEVICE) #13
  %0 = getelementptr i8, ptr %call.i, i64 184
  %call.val = load i64, ptr %0, align 8
  %and.i.i = and i64 %call.val, 4
  %tobool.i.i.not = icmp eq i64 %and.i.i, 0
  br i1 %tobool.i.i.not, label %if.end, label %land.lhs.true

land.lhs.true:                                    ; preds = %entry
  %type = getelementptr inbounds nuw i8, ptr %dev, i64 564
  %1 = load i32, ptr %type, align 4
  %cmp.not = icmp eq i32 %1, 5
  br i1 %cmp.not, label %if.end, label %if.then

if.then:                                          ; preds = %land.lhs.true
  store i32 3, ptr %info, align 4
  %reason = getelementptr inbounds nuw i8, ptr %info, i64 4
  %or = zext nneg i24 %sense.sroa.1.0.extract.shift to i32
  store i32 %or, ptr %reason, align 4
  %2 = getelementptr inbounds nuw i8, ptr %info, i64 8
  %id3 = getelementptr inbounds nuw i8, ptr %dev, i64 176
  %3 = load i32, ptr %id3, align 8
  store i32 %3, ptr %2, align 4
  %lun = getelementptr inbounds nuw i8, ptr %info, i64 12
  %lun4 = getelementptr inbounds nuw i8, ptr %dev, i64 556
  %4 = load i32, ptr %lun4, align 4
  store i32 %4, ptr %lun, align 4
  %5 = getelementptr i8, ptr %bus, i64 176
  %add.ptr.val = load ptr, ptr %5, align 8
  %tobool.not.i = icmp eq ptr %add.ptr.val, null
  br i1 %tobool.not.i, label %virtio_scsi_acquire.exit, label %if.then.i

if.then.i:                                        ; preds = %if.then
  tail call void @aio_context_acquire(ptr noundef nonnull %add.ptr.val) #13
  br label %virtio_scsi_acquire.exit

virtio_scsi_acquire.exit:                         ; preds = %if.then, %if.then.i
  call fastcc void @virtio_scsi_push_event(ptr noundef %add.ptr, ptr noundef %info)
  %add.ptr.val7 = load ptr, ptr %5, align 8
  %tobool.not.i8 = icmp eq ptr %add.ptr.val7, null
  br i1 %tobool.not.i8, label %if.end, label %if.then.i9

if.then.i9:                                       ; preds = %virtio_scsi_acquire.exit
  tail call void @aio_context_release(ptr noundef nonnull %add.ptr.val7) #13
  br label %if.end

if.end:                                           ; preds = %if.then.i9, %virtio_scsi_acquire.exit, %land.lhs.true, %entry
  ret void
}